L51 CODE BANKING LINKER/LOCATOR V4.08.03        08/31/117  15:23:44  PAGE  1
WIN32 L51 CODE BANKING LINKER/LOCATOR V4.08.03,  INVOKED BY:
L51.EXE C:\Documents and Settings\administrador\My Documents\piport\Firmware\&
piport5.OBJ  to  C:\Documents and Settings\administrador\My Documents\piport\&
Firmware\piport5.ABS PR(C:\Documents and Settings\administrador\My Documents\&
piport\Firmware\piport5.M51) PW(80) RS(128) ix 


INPUT MODULES INCLUDED
  C:\DOCUMENTS AND SETTINGS\ADMINISTRADOR\MY DOCUMENTS\PIPORT\FIRMWARE\PIPORT5.&
OBJ(PIPORT5)


LINK MAP OF MODULE: C:\DOCUMENTS AND SETTINGS\ADMINISTRADOR\MY DOCUMENTS\PIPORT&
\FIRMWARE\PIPORT5.ABS (PIPORT5)

    TYPE     BASE       LENGTH    RELOCATION     SEGMENT NAME
    ----     ----       ------    ----------     ------------

    * * * * * * *   DATA          M E M O R Y   * * * * * * *
    REG      0000H      0008H     ABSOLUTE       "REG BANK 0"

    * * * * * * *   CODE          M E M O R Y   * * * * * * *
    CODE     0000H      0003H     ABSOLUTE       
    CODE     0003H      0003H     ABSOLUTE       
             0006H      0005H                    *** GAP ***
    CODE     000BH      0003H     ABSOLUTE       
             000EH      0015H                    *** GAP ***
    CODE     0023H      0003H     ABSOLUTE       
             0026H      005AH                    *** GAP ***
    CODE     0080H      000EH     ABSOLUTE       
    CODE     008EH      0001H     ABSOLUTE       
    CODE     008FH      0001H     ABSOLUTE       
    CODE     0090H      000EH     ABSOLUTE       
    CODE     009EH      0001H     ABSOLUTE       
    CODE     009FH      0001H     ABSOLUTE       
             00A0H      0010H                    *** GAP ***
    CODE     00B0H      0006H     ABSOLUTE       
             00B6H      000AH                    *** GAP ***
    CODE     00C0H      0010H     ABSOLUTE       
             00D0H      0230H                    *** GAP ***
    CODE     0300H      0684H     ABSOLUTE       

EXECUTABLE SUMMARY:
-------------------
    Total INTERNAL storage requirement:  0008H (8)
    Total EXTERNAL storage requirement:  0000H (0)
    Total   CODE   storage requirement:  06C6H (1734)
Note:  Summary does not include dynamic stack requirements


REFERENCE MAP OF MODULE: C:\DOCUMENTS AND SETTINGS\ADMINISTRADOR\MY DOCUMENTS\P&
IPORT\FIRMWARE\PIPORT5.ABS (PIPORT5)

SEGMENT
   +-->CALLED SEGMENT
---------------------

SYMBOL TABLE FOR C:\DOCUMENTS AND SETTINGS\ADMINISTRADOR\MY DOCUMENTS\PIPORT\FI&
RMWARE\PIPORT5.ABS(PIPORT5)
-------------------------------------------------------------------------------&
----------------------------

    VALUE              TYPE               NAME
    -----              ----               ----

	-------            MODULE             PIPORT5
	C:05D5H            SYMBOL             TIPO22
	C:0539H            SYMBOL             ESPERA
	C:03EAH            SYMBOL             ES_COIN
L51 CODE BANKING LINKER/LOCATOR V4.08.03          08/31/117  15:23:44  PAGE  2

	C:00C0H            SYMBOL             SERIAL
	C:07C4H            SYMBOL             SIGUE_ACOMODA1
	C:07A7H            SYMBOL             ACOMODAR_CADENA
	C:0535H            SYMBOL             LAZO_TX
	C:04FFH            SYMBOL             LRC
	C:0467H            SYMBOL             INTE1
	B:00A4H            SYMBOL             LLED
	C:08C5H            SYMBOL             GIRA_INI
	C:05D2H            SYMBOL             TIPO33
	C:072AH            SYMBOL             ROTAR_CADENA
	C:04D9H            SYMBOL             FIN_TIBH
	C:0555H            SYMBOL             INI_VAR_READ
	C:07F8H            SYMBOL             LAZO_RGB_LED
	C:05CFH            SYMBOL             TIPO44
	C:045BH            SYMBOL             ERROR_INT0
	C:04AFH            SYMBOL             FIN_SERIE1
	C:0405H            SYMBOL             ES_SALIDA
	C:0526H            SYMBOL             ENVIAR
	C:0090H            SYMBOL             START_SEN2
	C:0968H            SYMBOL             RETA_155
	C:077FH            SYMBOL             SIGUE_GC
	C:0593H            SYMBOL             ERROROINV
	C:08BBH            SYMBOL             GIRAR1
	C:03FFH            SYMBOL             ES_DES_TTL
	C:08D6H            SYMBOL             FILL
	C:062EH            SYMBOL             RETARDO_025MS
	C:0611H            SYMBOL             RUT_RET_C
	C:0575H            SYMBOL             NO_LEA_CARD
	C:04DCH            SYMBOL             FIN_TIBL
	C:0481H            SYMBOL             RXON
	C:0861H            SYMBOL             STARTROJO
	C:03F3H            SYMBOL             ES_GIRO
	C:07DFH            SYMBOL             LAZO_INI_LED
	C:0644H            SYMBOL             RUT_RET1_C1
	C:04A7H            SYMBOL             TXON
	B:00A1H            SYMBOL             PULSO_TKOUT
	B:00A0H            SYMBOL             COIN
	C:0646H            SYMBOL             RUT_RET2_C1
	C:05E4H            SYMBOL             ERROR
	C:095EH            SYMBOL             RETARDO_155MS
	C:050DH            SYMBOL             LOOP1
	B:0092H            SYMBOL             CTRL_A_IN
	C:0702H            SYMBOL             SIGUE_PERMUTAR
	C:043BH            SYMBOL             BUFFER_FULL
	C:045EH            SYMBOL             FIN_INTE
	C:0425H            SYMBOL             SIGUE_INTE
	C:040BH            SYMBOL             ES_CTRL
	C:03A2H            SYMBOL             ENVIAR_CAD
	B:0093H            SYMBOL             CTRL_B_IN
	B:0090H            SYMBOL             CTRL_A_OUT
	C:08F4H            SYMBOL             ROTA_FILL1
	C:05B1H            SYMBOL             TIPO1
	C:082EH            SYMBOL             CARGA_VERDE_CIAN
	C:0806H            SYMBOL             CARGA_BRG_FUEGO
	C:066DH            SYMBOL             INI_TIEMPO
	B:0091H            SYMBOL             CTRL_B_OUT
	C:0981H            SYMBOL             PAGO_ACT_HI
	C:0871H            SYMBOL             SIGUE_R
	C:05B7H            SYMBOL             TIPO2
	C:094EH            SYMBOL             F_COIN
	C:009EH            SYMBOL             END_SEN2
	C:097EH            SYMBOL             PAGO_ACT_LOW
	C:0864H            SYMBOL             LAZO_ROJO
	C:06DDH            SYMBOL             LOOP_SUMA
	C:05BDH            SYMBOL             TIPO3
	C:0667H            SYMBOL             DES_TTL
	C:07EDH            SYMBOL             RGB_LED
	B:00A2H            SYMBOL             DATALED
L51 CODE BANKING LINKER/LOCATOR V4.08.03          08/31/117  15:23:44  PAGE  3

	B:00A3H            SYMBOL             CLKLED
	C:07B2H            SYMBOL             SIGUE_ACOMODA
	C:0770H            SYMBOL             GIRAR_CADENA
	C:05C3H            SYMBOL             TIPO4
	C:059CH            SYMBOL             PRUEBA1
	C:0414H            SYMBOL             INTE
	C:0739H            SYMBOL             SIGUE_RC
	C:05F1H            SYMBOL             ERROR_CAD
	C:05C9H            SYMBOL             TIPO5
	C:05A2H            SYMBOL             PRUEBA2
	C:04F7H            SYMBOL             FIN_TETH
	C:04BAH            SYMBOL             TIMER0
	C:086FH            SYMBOL             UNO
	C:05F4H            SYMBOL             FIN_VERI
	C:05A8H            SYMBOL             PRUEBA3
	C:04DCH            SYMBOL             NO_INTERBYTE
	C:0399H            SYMBOL             VERIFICA_DIRECTO
	C:008FH            SYMBOL             LRC1
	C:08ECH            SYMBOL             GIRA_INI1
	C:05AEH            SYMBOL             PRUEBA4
	C:0449H            SYMBOL             FIN_F1
	C:009FH            SYMBOL             LRC2
	C:0080H            SYMBOL             START_SEN
	B:00B2H            SYMBOL             CARD_CLK
	B:0097H            SYMBOL             CARD_DATA
	C:04ACH            SYMBOL             FIN_SERIE
	C:045EH            SYMBOL             SIGUE_F2
	C:045EH            SYMBOL             FIN_F2
	C:0856H            SYMBOL             BUFFER_FILL_LED
	C:03BBH            SYMBOL             CHK_ENTRADA
	C:0378H            SYMBOL             SW1_PRES
	C:07D4H            SYMBOL             INI_LED
	B:0089H            SYMBOL             FLAG_INT0
	C:06F6H            SYMBOL             F_PERMUTAR
	C:05FDH            SYMBOL             RETARDO_05MS
	C:04FAH            SYMBOL             FIN_TETL
	C:03F9H            SYMBOL             ES_HAB_TTL
	C:036FH            SYMBOL             SW_TX
	C:0363H            SYMBOL             SW2_PRES
	C:08E2H            SYMBOL             GIRAR
	B:0094H            SYMBOL             IN_INH
	B:008BH            SYMBOL             FLAG_INT1
	C:03E1H            SYMBOL             ES_COLOR
	C:03B3H            SYMBOL             FIN_LOOP
	C:057AH            SYMBOL             VERIFICAR_CADENA
	B:00B7H            SYMBOL             OUT_INH
	C:08FCH            SYMBOL             FILL1
	C:06BAH            SYMBOL             LOOP_MEM
	C:0642H            SYMBOL             RUT_RET_C1
	C:0613H            SYMBOL             RUT_RET1_C
	C:093AH            SYMBOL             CHAIN_CHK
	C:0470H            SYMBOL             SERIE
	C:0300H            SYMBOL             PIPO
	C:0615H            SYMBOL             RUT_RET2_C
	C:04B1H            SYMBOL             FIN_FIN
	C:06CFH            SYMBOL             SUMA30
	C:035EH            SYMBOL             LAZ2
	C:089CH            SYMBOL             SIGUE_RL
	C:0908H            SYMBOL             CP_CAD
	C:0389H            SYMBOL             READING
	C:0348H            SYMBOL             LOOP
	B:0095H            SYMBOL             CARD_PRESENT
	C:00B0H            SYMBOL             BRG
	B:00B4H            SYMBOL             SW1
	C:08CEH            SYMBOL             ROTA_FILL
	C:088CH            SYMBOL             ROTAR_LED
	C:04FAH            SYMBOL             NO_T_EXPIRE
	C:039FH            SYMBOL             VERIFICA_INVERTIDO
L51 CODE BANKING LINKER/LOCATOR V4.08.03          08/31/117  15:23:44  PAGE  4

	C:008EH            SYMBOL             END_SEN
	B:00B5H            SYMBOL             SW2
	C:046BH            SYMBOL             FIN_INTE1
	C:05D8H            SYMBOL             TIPO11
	C:065FH            SYMBOL             HAB_TTL
	C:06ACH            SYMBOL             INI_MEM
	C:0000H            LINE#              2
	C:0003H            LINE#              4
	C:000BH            LINE#              8
	C:0023H            LINE#              12
	C:0300H            LINE#              120
	C:0302H            LINE#              123
	C:0304H            LINE#              124
	C:0306H            LINE#              125
	C:0308H            LINE#              126
	C:030AH            LINE#              130
	C:030DH            LINE#              131
	C:0310H            LINE#              132
	C:0313H            LINE#              133
	C:0315H            LINE#              134
	C:0317H            LINE#              135
	C:0319H            LINE#              140
	C:031BH            LINE#              141
	C:031DH            LINE#              142
	C:031FH            LINE#              143
	C:0321H            LINE#              144
	C:0323H            LINE#              145
	C:0326H            LINE#              146
	C:0329H            LINE#              147
	C:032CH            LINE#              149
	C:032EH            LINE#              150
	C:0330H            LINE#              156
	C:0333H            LINE#              157
	C:0336H            LINE#              158
	C:0339H            LINE#              159
	C:033CH            LINE#              164
	C:033FH            LINE#              165
	C:0342H            LINE#              166
	C:0345H            LINE#              167
	C:0348H            LINE#              171
	C:034BH            LINE#              172
	C:034EH            LINE#              176
	C:0350H            LINE#              177
	C:0352H            LINE#              180
	C:0354H            LINE#              181
	C:0356H            LINE#              182
	C:0359H            LINE#              183
	C:035CH            LINE#              185
	C:035EH            LINE#              189
	C:0360H            LINE#              190
	C:0363H            LINE#              193
	C:0366H            LINE#              194
	C:0369H            LINE#              195
	C:036CH            LINE#              196
	C:036FH            LINE#              198
	C:0371H            LINE#              199
	C:0373H            LINE#              200
	C:0376H            LINE#              201
	C:0378H            LINE#              204
	C:037BH            LINE#              205
	C:037EH            LINE#              206
	C:0381H            LINE#              207
	C:0384H            LINE#              208
	C:0387H            LINE#              209
	C:0389H            LINE#              214
	C:038CH            LINE#              216
	C:038EH            LINE#              217
	C:0391H            LINE#              220
L51 CODE BANKING LINKER/LOCATOR V4.08.03          08/31/117  15:23:44  PAGE  5

	C:0393H            LINE#              221
	C:0396H            LINE#              222
	C:0399H            LINE#              224
	C:039CH            LINE#              225
	C:039FH            LINE#              227
	C:03A2H            LINE#              229
	C:03A5H            LINE#              230
	C:03A8H            LINE#              232
	C:03ABH            LINE#              233
	C:03AEH            LINE#              234
	C:03B1H            LINE#              235
	C:03B3H            LINE#              238
	C:03B6H            LINE#              239
	C:03B9H            LINE#              240
	C:03BBH            LINE#              243
	C:03BEH            LINE#              245
	C:03C0H            LINE#              246
	C:03C2H            LINE#              247
	C:03C4H            LINE#              249
	C:03C6H            LINE#              250
	C:03C8H            LINE#              251
	C:03CAH            LINE#              253
	C:03CCH            LINE#              254
	C:03CEH            LINE#              255
	C:03D0H            LINE#              257
	C:03D2H            LINE#              258
	C:03D4H            LINE#              259
	C:03D6H            LINE#              261
	C:03D8H            LINE#              262
	C:03DAH            LINE#              263
	C:03DCH            LINE#              265
	C:03DFH            LINE#              266
	C:03E1H            LINE#              269
	C:03E4H            LINE#              270
	C:03E7H            LINE#              271
	C:03EAH            LINE#              273
	C:03EDH            LINE#              274
	C:03F0H            LINE#              275
	C:03F3H            LINE#              277
	C:03F6H            LINE#              278
	C:03F9H            LINE#              280
	C:03FCH            LINE#              281
	C:03FFH            LINE#              283
	C:0402H            LINE#              284
	C:0405H            LINE#              286
	C:0408H            LINE#              287
	C:040BH            LINE#              289
	C:040DH            LINE#              290
	C:040FH            LINE#              291
	C:0412H            LINE#              292
	C:0414H            LINE#              296
	C:0416H            LINE#              297
	C:0418H            LINE#              298
	C:0419H            LINE#              299
	C:041BH            LINE#              301
	C:041DH            LINE#              302
	C:041FH            LINE#              303
	C:0422H            LINE#              304
	C:0425H            LINE#              308
	C:0428H            LINE#              309
	C:042AH            LINE#              310
	C:042BH            LINE#              311
	C:042CH            LINE#              312
	C:042FH            LINE#              313
	C:0432H            LINE#              314
	C:0434H            LINE#              315
	C:0436H            LINE#              316
	C:0438H            LINE#              318
L51 CODE BANKING LINKER/LOCATOR V4.08.03          08/31/117  15:23:44  PAGE  6

	C:043BH            LINE#              320
	C:043EH            LINE#              321
	C:043FH            LINE#              322
	C:0440H            LINE#              323
	C:0441H            LINE#              324
	C:0443H            LINE#              325
	C:0446H            LINE#              327
	C:0449H            LINE#              332
	C:044BH            LINE#              333
	C:044DH            LINE#              334
	C:044EH            LINE#              335
	C:0450H            LINE#              336
	C:0452H            LINE#              340
	C:0454H            LINE#              341
	C:0456H            LINE#              342
	C:0458H            LINE#              343
	C:045BH            LINE#              345
	C:045EH            LINE#              353
	C:0460H            LINE#              354
	C:0462H            LINE#              355
	C:0464H            LINE#              356
	C:0466H            LINE#              357
	C:0467H            LINE#              362
	C:0469H            LINE#              363
	C:046BH            LINE#              370
	C:046DH            LINE#              371
	C:046FH            LINE#              372
	C:0470H            LINE#              376
	C:0472H            LINE#              377
	C:0474H            LINE#              378
	C:0476H            LINE#              379
	C:0478H            LINE#              381
	C:047BH            LINE#              382
	C:047EH            LINE#              383
	C:0481H            LINE#              385
	C:0483H            LINE#              386
	C:0485H            LINE#              388
	C:0487H            LINE#              390
	C:048AH            LINE#              391
	C:048CH            LINE#              392
	C:048EH            LINE#              394
	C:0491H            LINE#              398
	C:0493H            LINE#              400
	C:0495H            LINE#              402
	C:0497H            LINE#              404
	C:049AH            LINE#              406
	C:049DH            LINE#              407
	C:04A0H            LINE#              408
	C:04A2H            LINE#              410
	C:04A4H            LINE#              411
	C:04A7H            LINE#              413
	C:04AAH            LINE#              414
	C:04ACH            LINE#              416
	C:04AFH            LINE#              419
	C:04B1H            LINE#              422
	C:04B3H            LINE#              423
	C:04B5H            LINE#              424
	C:04B7H            LINE#              425
	C:04B9H            LINE#              426
	C:04BAH            LINE#              430
	C:04BCH            LINE#              431
	C:04BEH            LINE#              433
	C:04C0H            LINE#              434
	C:04C2H            LINE#              435
	C:04C4H            LINE#              436
	C:04C5H            LINE#              437
	C:04C7H            LINE#              438
	C:04C9H            LINE#              439
L51 CODE BANKING LINKER/LOCATOR V4.08.03          08/31/117  15:23:44  PAGE  7

	C:04CBH            LINE#              440
	C:04CCH            LINE#              441
	C:04CEH            LINE#              442
	C:04D0H            LINE#              443
	C:04D3H            LINE#              444
	C:04D6H            LINE#              445
	C:04D9H            LINE#              447
	C:04DCH            LINE#              453
	C:04DEH            LINE#              454
	C:04E0H            LINE#              455
	C:04E2H            LINE#              456
	C:04E3H            LINE#              457
	C:04E5H            LINE#              458
	C:04E7H            LINE#              459
	C:04E9H            LINE#              460
	C:04EAH            LINE#              461
	C:04ECH            LINE#              462
	C:04EEH            LINE#              463
	C:04F1H            LINE#              464
	C:04F4H            LINE#              465
	C:04F7H            LINE#              468
	C:04FAH            LINE#              474
	C:04FCH            LINE#              475
	C:04FEH            LINE#              476
	C:04FFH            LINE#              555
	C:0501H            LINE#              556
	C:0503H            LINE#              557
	C:0504H            LINE#              558
	C:0506H            LINE#              559
	C:0507H            LINE#              560
	C:0509H            LINE#              563
	C:050BH            LINE#              564
	C:050DH            LINE#              568
	C:050EH            LINE#              569
	C:0510H            LINE#              570
	C:0511H            LINE#              571
	C:0512H            LINE#              572
	C:0513H            LINE#              573
	C:0514H            LINE#              574
	C:0517H            LINE#              575
	C:0519H            LINE#              577
	C:051BH            LINE#              578
	C:051DH            LINE#              579
	C:051FH            LINE#              580
	C:0521H            LINE#              581
	C:0523H            LINE#              582
	C:0525H            LINE#              583
	C:0526H            LINE#              591
	C:0528H            LINE#              592
	C:052AH            LINE#              593
	C:052BH            LINE#              594
	C:052DH            LINE#              597
	C:0530H            LINE#              598
	C:0532H            LINE#              601
	C:0535H            LINE#              604
	C:0536H            LINE#              605
	C:0538H            LINE#              606
	C:0539H            LINE#              609
	C:053BH            LINE#              610
	C:053DH            LINE#              612
	C:0540H            LINE#              613
	C:0543H            LINE#              614
	C:0546H            LINE#              618
	C:0549H            LINE#              626
	C:054CH            LINE#              628
	C:054EH            LINE#              629
	C:0550H            LINE#              630
	C:0552H            LINE#              631
L51 CODE BANKING LINKER/LOCATOR V4.08.03          08/31/117  15:23:44  PAGE  8

	C:0554H            LINE#              632
	C:0555H            LINE#              635
	C:0557H            LINE#              636
	C:0559H            LINE#              638
	C:055CH            LINE#              639
	C:055EH            LINE#              640
	C:0561H            LINE#              641
	C:0564H            LINE#              642
	C:0567H            LINE#              643
	C:056AH            LINE#              644
	C:056DH            LINE#              646
	C:056FH            LINE#              647
	C:0571H            LINE#              648
	C:0573H            LINE#              649
	C:0575H            LINE#              652
	C:0577H            LINE#              653
	C:0579H            LINE#              654
	C:057AH            LINE#              657
	C:057CH            LINE#              658
	C:057EH            LINE#              659
	C:057FH            LINE#              660
	C:0581H            LINE#              662
	C:0583H            LINE#              663
	C:0584H            LINE#              664
	C:0587H            LINE#              665
	C:0589H            LINE#              666
	C:058AH            LINE#              667
	C:058DH            LINE#              668
	C:0590H            LINE#              669
	C:0593H            LINE#              671
	C:0595H            LINE#              672
	C:0596H            LINE#              673
	C:0599H            LINE#              674
	C:059CH            LINE#              676
	C:059FH            LINE#              677
	C:05A2H            LINE#              679
	C:05A5H            LINE#              680
	C:05A8H            LINE#              682
	C:05ABH            LINE#              683
	C:05AEH            LINE#              685
	C:05B1H            LINE#              688
	C:05B4H            LINE#              689
	C:05B7H            LINE#              692
	C:05BAH            LINE#              693
	C:05BDH            LINE#              696
	C:05C0H            LINE#              697
	C:05C3H            LINE#              700
	C:05C6H            LINE#              701
	C:05C9H            LINE#              704
	C:05CCH            LINE#              705
	C:05CFH            LINE#              707
	C:05D2H            LINE#              709
	C:05D5H            LINE#              711
	C:05D8H            LINE#              713
	C:05DBH            LINE#              714
	C:05DEH            LINE#              715
	C:05E1H            LINE#              716
	C:05E4H            LINE#              721
	C:05E6H            LINE#              722
	C:05E8H            LINE#              723
	C:05E9H            LINE#              724
	C:05EBH            LINE#              725
	C:05ECH            LINE#              726
	C:05EEH            LINE#              727
	C:05EFH            LINE#              728
	C:05F1H            LINE#              730
	C:05F4H            LINE#              733
	C:05F6H            LINE#              734
L51 CODE BANKING LINKER/LOCATOR V4.08.03          08/31/117  15:23:44  PAGE  9

	C:05F8H            LINE#              735
	C:05FAH            LINE#              736
	C:05FCH            LINE#              737
	C:05FDH            LINE#              740
	C:05FFH            LINE#              741
	C:0601H            LINE#              742
	C:0603H            LINE#              743
	C:0605H            LINE#              744
	C:0607H            LINE#              745
	C:0609H            LINE#              746
	C:060BH            LINE#              747
	C:060DH            LINE#              748
	C:060FH            LINE#              750
	C:0611H            LINE#              752
	C:0613H            LINE#              754
	C:0615H            LINE#              756
	C:0617H            LINE#              757
	C:0619H            LINE#              758
	C:061BH            LINE#              760
	C:061DH            LINE#              761
	C:061FH            LINE#              762
	C:0621H            LINE#              763
	C:0623H            LINE#              764
	C:0625H            LINE#              765
	C:0627H            LINE#              766
	C:0629H            LINE#              767
	C:062BH            LINE#              768
	C:062DH            LINE#              769
	C:062EH            LINE#              772
	C:0630H            LINE#              773
	C:0632H            LINE#              774
	C:0634H            LINE#              775
	C:0636H            LINE#              776
	C:0638H            LINE#              777
	C:063AH            LINE#              778
	C:063CH            LINE#              779
	C:063EH            LINE#              780
	C:0640H            LINE#              782
	C:0642H            LINE#              784
	C:0644H            LINE#              786
	C:0646H            LINE#              788
	C:0648H            LINE#              789
	C:064AH            LINE#              790
	C:064CH            LINE#              792
	C:064EH            LINE#              793
	C:0650H            LINE#              794
	C:0652H            LINE#              795
	C:0654H            LINE#              796
	C:0656H            LINE#              797
	C:0658H            LINE#              798
	C:065AH            LINE#              799
	C:065CH            LINE#              800
	C:065EH            LINE#              801
	C:065FH            LINE#              804
	C:0661H            LINE#              805
	C:0663H            LINE#              806
	C:0666H            LINE#              807
	C:0667H            LINE#              810
	C:0669H            LINE#              811
	C:066CH            LINE#              812
	C:066DH            LINE#              816
	C:066FH            LINE#              817
	C:0671H            LINE#              819
	C:0674H            LINE#              821
	C:0677H            LINE#              822
	C:067AH            LINE#              824
	C:067DH            LINE#              825
	C:0680H            LINE#              827
L51 CODE BANKING LINKER/LOCATOR V4.08.03          08/31/117  15:23:44  PAGE 10

	C:0683H            LINE#              828
	C:0686H            LINE#              832
	C:0689H            LINE#              834
	C:068CH            LINE#              836
	C:068FH            LINE#              837
	C:0692H            LINE#              838
	C:0695H            LINE#              841
	C:0698H            LINE#              842
	C:069BH            LINE#              843
	C:069EH            LINE#              845
	C:06A1H            LINE#              848
	C:06A4H            LINE#              849
	C:06A7H            LINE#              851
	C:06A9H            LINE#              852
	C:06ABH            LINE#              853
	C:06ACH            LINE#              857
	C:06AEH            LINE#              858
	C:06B0H            LINE#              859
	C:06B1H            LINE#              860
	C:06B3H            LINE#              861
	C:06B4H            LINE#              862
	C:06B6H            LINE#              864
	C:06B8H            LINE#              865
	C:06BAH            LINE#              869
	C:06BCH            LINE#              870
	C:06BDH            LINE#              871
	C:06BEH            LINE#              872
	C:06BFH            LINE#              873
	C:06C2H            LINE#              875
	C:06C4H            LINE#              876
	C:06C6H            LINE#              877
	C:06C8H            LINE#              878
	C:06CAH            LINE#              879
	C:06CCH            LINE#              880
	C:06CEH            LINE#              881
	C:06CFH            LINE#              884
	C:06D1H            LINE#              885
	C:06D3H            LINE#              886
	C:06D4H            LINE#              887
	C:06D6H            LINE#              888
	C:06D7H            LINE#              889
	C:06D9H            LINE#              892
	C:06DBH            LINE#              893
	C:06DDH            LINE#              898
	C:06DEH            LINE#              899
	C:06E0H            LINE#              900
	C:06E2H            LINE#              901
	C:06E3H            LINE#              902
	C:06E4H            LINE#              903
	C:06E5H            LINE#              904
	C:06E6H            LINE#              905
	C:06E9H            LINE#              907
	C:06EBH            LINE#              908
	C:06EDH            LINE#              909
	C:06EFH            LINE#              910
	C:06F1H            LINE#              911
	C:06F3H            LINE#              912
	C:06F5H            LINE#              913
	C:06F6H            LINE#              955
	C:06F8H            LINE#              956
	C:06FAH            LINE#              957
	C:06FBH            LINE#              958
	C:06FDH            LINE#              960
	C:06FFH            LINE#              961
	C:0702H            LINE#              965
	C:0703H            LINE#              967
	C:0705H            LINE#              968
	C:0707H            LINE#              969
L51 CODE BANKING LINKER/LOCATOR V4.08.03          08/31/117  15:23:44  PAGE 11

	C:0709H            LINE#              970
	C:070BH            LINE#              971
	C:070DH            LINE#              972
	C:070FH            LINE#              973
	C:0711H            LINE#              974
	C:0713H            LINE#              975
	C:0715H            LINE#              976
	C:0717H            LINE#              978
	C:0719H            LINE#              980
	C:071AH            LINE#              981
	C:071BH            LINE#              982
	C:071DH            LINE#              983
	C:071FH            LINE#              984
	C:0722H            LINE#              988
	C:0724H            LINE#              989
	C:0725H            LINE#              990
	C:0727H            LINE#              991
	C:0729H            LINE#              992
	C:072AH            LINE#              996
	C:072CH            LINE#              997
	C:072EH            LINE#              998
	C:072FH            LINE#              999
	C:0731H            LINE#              1001
	C:0733H            LINE#              1002
	C:0736H            LINE#              1003
	C:0739H            LINE#              1008
	C:073AH            LINE#              1010
	C:073CH            LINE#              1011
	C:073EH            LINE#              1014
	C:0741H            LINE#              1016
	C:0743H            LINE#              1017
	C:0745H            LINE#              1019
	C:0747H            LINE#              1020
	C:0749H            LINE#              1022
	C:074BH            LINE#              1023
	C:074DH            LINE#              1025
	C:074FH            LINE#              1026
	C:0751H            LINE#              1028
	C:0753H            LINE#              1029
	C:0755H            LINE#              1031
	C:0757H            LINE#              1032
	C:0759H            LINE#              1034
	C:075BH            LINE#              1036
	C:075DH            LINE#              1037
	C:075FH            LINE#              1039
	C:0760H            LINE#              1040
	C:0761H            LINE#              1041
	C:0763H            LINE#              1042
	C:0765H            LINE#              1043
	C:0768H            LINE#              1047
	C:076AH            LINE#              1048
	C:076BH            LINE#              1049
	C:076DH            LINE#              1050
	C:076FH            LINE#              1051
	C:0770H            LINE#              1056
	C:0772H            LINE#              1057
	C:0774H            LINE#              1058
	C:0775H            LINE#              1059
	C:0777H            LINE#              1062
	C:0779H            LINE#              1063
	C:077CH            LINE#              1064
	C:077FH            LINE#              1068
	C:0780H            LINE#              1070
	C:0782H            LINE#              1071
	C:0784H            LINE#              1072
	C:0786H            LINE#              1073
	C:0788H            LINE#              1074
	C:078AH            LINE#              1075
L51 CODE BANKING LINKER/LOCATOR V4.08.03          08/31/117  15:23:44  PAGE 12

	C:078CH            LINE#              1076
	C:078EH            LINE#              1077
	C:0790H            LINE#              1078
	C:0792H            LINE#              1079
	C:0794H            LINE#              1081
	C:0796H            LINE#              1083
	C:0797H            LINE#              1084
	C:0798H            LINE#              1085
	C:079AH            LINE#              1086
	C:079CH            LINE#              1087
	C:079FH            LINE#              1090
	C:07A1H            LINE#              1091
	C:07A2H            LINE#              1092
	C:07A4H            LINE#              1093
	C:07A6H            LINE#              1094
	C:07A7H            LINE#              1099
	C:07A9H            LINE#              1100
	C:07ABH            LINE#              1102
	C:07ADH            LINE#              1103
	C:07AFH            LINE#              1104
	C:07B2H            LINE#              1108
	C:07B3H            LINE#              1109
	C:07B4H            LINE#              1110
	C:07B5H            LINE#              1111
	C:07B6H            LINE#              1112
	C:07B8H            LINE#              1113
	C:07BAH            LINE#              1114
	C:07BDH            LINE#              1116
	C:07BFH            LINE#              1117
	C:07C1H            LINE#              1118
	C:07C4H            LINE#              1122
	C:07C5H            LINE#              1123
	C:07C6H            LINE#              1124
	C:07C7H            LINE#              1125
	C:07C8H            LINE#              1126
	C:07CAH            LINE#              1127
	C:07CCH            LINE#              1128
	C:07CFH            LINE#              1131
	C:07D1H            LINE#              1132
	C:07D3H            LINE#              1133
	C:07D4H            LINE#              1136
	C:07D6H            LINE#              1137
	C:07D8H            LINE#              1139
	C:07DAH            LINE#              1140
	C:07DCH            LINE#              1142
	C:07DFH            LINE#              1144
	C:07E1H            LINE#              1145
	C:07E3H            LINE#              1146
	C:07E6H            LINE#              1148
	C:07E8H            LINE#              1150
	C:07EAH            LINE#              1151
	C:07ECH            LINE#              1152
	C:07EDH            LINE#              1155
	C:07EFH            LINE#              1156
	C:07F1H            LINE#              1158
	C:07F3H            LINE#              1159
	C:07F5H            LINE#              1161
	C:07F8H            LINE#              1163
	C:07FAH            LINE#              1164
	C:07FCH            LINE#              1165
	C:07FFH            LINE#              1167
	C:0801H            LINE#              1169
	C:0803H            LINE#              1170
	C:0805H            LINE#              1171
	C:0806H            LINE#              1174
	C:0808H            LINE#              1175
	C:080AH            LINE#              1176
	C:080BH            LINE#              1177
L51 CODE BANKING LINKER/LOCATOR V4.08.03          08/31/117  15:23:44  PAGE 13

	C:080DH            LINE#              1179
	C:080FH            LINE#              1180
	C:0811H            LINE#              1181
	C:0813H            LINE#              1182
	C:0815H            LINE#              1183
	C:0817H            LINE#              1184
	C:0819H            LINE#              1185
	C:081BH            LINE#              1186
	C:081DH            LINE#              1187
	C:081FH            LINE#              1188
	C:0821H            LINE#              1189
	C:0823H            LINE#              1190
	C:0825H            LINE#              1192
	C:0827H            LINE#              1193
	C:0829H            LINE#              1194
	C:082BH            LINE#              1195
	C:082DH            LINE#              1196
	C:082EH            LINE#              1199
	C:0830H            LINE#              1200
	C:0832H            LINE#              1201
	C:0833H            LINE#              1202
	C:0835H            LINE#              1204
	C:0837H            LINE#              1205
	C:0839H            LINE#              1206
	C:083BH            LINE#              1207
	C:083DH            LINE#              1208
	C:083FH            LINE#              1209
	C:0841H            LINE#              1210
	C:0843H            LINE#              1211
	C:0845H            LINE#              1212
	C:0847H            LINE#              1213
	C:0849H            LINE#              1214
	C:084BH            LINE#              1215
	C:084DH            LINE#              1217
	C:084FH            LINE#              1218
	C:0851H            LINE#              1219
	C:0853H            LINE#              1220
	C:0855H            LINE#              1221
	C:0856H            LINE#              1225
	C:0858H            LINE#              1226
	C:085AH            LINE#              1227
	C:085BH            LINE#              1228
	C:085DH            LINE#              1230
	C:085FH            LINE#              1232
	C:0861H            LINE#              1235
	C:0864H            LINE#              1238
	C:0865H            LINE#              1239
	C:0866H            LINE#              1240
	C:0867H            LINE#              1241
	C:0868H            LINE#              1243
	C:086AH            LINE#              1244
	C:086CH            LINE#              1245
	C:086FH            LINE#              1247
	C:0871H            LINE#              1249
	C:0873H            LINE#              1250
	C:0876H            LINE#              1251
	C:0878H            LINE#              1252
	C:087BH            LINE#              1254
	C:087EH            LINE#              1256
	C:087FH            LINE#              1259
	C:0882H            LINE#              1261
	C:0884H            LINE#              1264
	C:0886H            LINE#              1265
	C:0887H            LINE#              1266
	C:0889H            LINE#              1267
	C:088BH            LINE#              1268
	C:088CH            LINE#              1272
	C:088EH            LINE#              1273
L51 CODE BANKING LINKER/LOCATOR V4.08.03          08/31/117  15:23:44  PAGE 14

	C:0890H            LINE#              1274
	C:0891H            LINE#              1275
	C:0893H            LINE#              1277
	C:0895H            LINE#              1278
	C:0898H            LINE#              1279
	C:089BH            LINE#              1281
	C:089CH            LINE#              1285
	C:089EH            LINE#              1287
	C:089FH            LINE#              1288
	C:08A0H            LINE#              1289
	C:08A1H            LINE#              1291
	C:08A3H            LINE#              1293
	C:08A4H            LINE#              1295
	C:08A6H            LINE#              1296
	C:08A8H            LINE#              1297
	C:08ABH            LINE#              1299
	C:08ADH            LINE#              1300
	C:08AEH            LINE#              1301
	C:08B0H            LINE#              1302
	C:08B2H            LINE#              1303
	C:08B3H            LINE#              1305
	C:08B5H            LINE#              1306
	C:08B6H            LINE#              1307
	C:08B8H            LINE#              1308
	C:08BAH            LINE#              1309
	C:08BBH            LINE#              1313
	C:08BDH            LINE#              1314
	C:08BFH            LINE#              1316
	C:08C2H            LINE#              1317
	C:08C5H            LINE#              1321
	C:08C8H            LINE#              1322
	C:08CAH            LINE#              1323
	C:08CCH            LINE#              1324
	C:08CEH            LINE#              1326
	C:08D0H            LINE#              1327
	C:08D2H            LINE#              1328
	C:08D4H            LINE#              1329
	C:08D6H            LINE#              1332
	C:08D8H            LINE#              1333
	C:08DAH            LINE#              1334
	C:08DDH            LINE#              1336
	C:08DFH            LINE#              1337
	C:08E1H            LINE#              1338
	C:08E2H            LINE#              1341
	C:08E4H            LINE#              1342
	C:08E6H            LINE#              1344
	C:08E9H            LINE#              1345
	C:08ECH            LINE#              1349
	C:08EEH            LINE#              1350
	C:08F0H            LINE#              1351
	C:08F2H            LINE#              1352
	C:08F4H            LINE#              1354
	C:08F6H            LINE#              1355
	C:08F8H            LINE#              1356
	C:08FAH            LINE#              1357
	C:08FCH            LINE#              1360
	C:08FEH            LINE#              1361
	C:0900H            LINE#              1362
	C:0903H            LINE#              1364
	C:0905H            LINE#              1365
	C:0907H            LINE#              1366
	C:0908H            LINE#              1369
	C:090AH            LINE#              1370
	C:090CH            LINE#              1371
	C:090DH            LINE#              1372
	C:090FH            LINE#              1373
	C:0910H            LINE#              1374
	C:0912H            LINE#              1376
L51 CODE BANKING LINKER/LOCATOR V4.08.03          08/31/117  15:23:44  PAGE 15

	C:0914H            LINE#              1377
	C:0915H            LINE#              1378
	C:0917H            LINE#              1380
	C:0918H            LINE#              1381
	C:0919H            LINE#              1382
	C:091AH            LINE#              1383
	C:091BH            LINE#              1385
	C:091CH            LINE#              1386
	C:091DH            LINE#              1387
	C:091EH            LINE#              1388
	C:091FH            LINE#              1390
	C:0920H            LINE#              1391
	C:0921H            LINE#              1392
	C:0922H            LINE#              1393
	C:0923H            LINE#              1395
	C:0924H            LINE#              1396
	C:0925H            LINE#              1397
	C:0926H            LINE#              1398
	C:0927H            LINE#              1400
	C:0928H            LINE#              1401
	C:0929H            LINE#              1402
	C:092AH            LINE#              1403
	C:092BH            LINE#              1405
	C:092CH            LINE#              1406
	C:092DH            LINE#              1407
	C:092EH            LINE#              1408
	C:092FH            LINE#              1410
	C:0931H            LINE#              1411
	C:0932H            LINE#              1412
	C:0934H            LINE#              1413
	C:0935H            LINE#              1414
	C:0937H            LINE#              1415
	C:0939H            LINE#              1416
	C:093AH            LINE#              1419
	C:093CH            LINE#              1420
	C:093EH            LINE#              1421
	C:093FH            LINE#              1422
	C:0941H            LINE#              1424
	C:0943H            LINE#              1425
	C:0945H            LINE#              1427
	C:0947H            LINE#              1428
	C:0949H            LINE#              1429
	C:094BH            LINE#              1430
	C:094DH            LINE#              1431
	C:094EH            LINE#              1434
	C:0950H            LINE#              1435
	C:0952H            LINE#              1437
	C:0954H            LINE#              1438
	C:0957H            LINE#              1439
	C:0959H            LINE#              1441
	C:095BH            LINE#              1442
	C:095DH            LINE#              1443
	C:095EH            LINE#              1447
	C:0960H            LINE#              1448
	C:0962H            LINE#              1449
	C:0965H            LINE#              1450
	C:0968H            LINE#              1453
	C:096AH            LINE#              1454
	C:096BH            LINE#              1455
	C:096DH            LINE#              1456
	C:096FH            LINE#              1458
	C:0972H            LINE#              1459
	C:0974H            LINE#              1460
	C:0975H            LINE#              1461
	C:0977H            LINE#              1462
	C:0979H            LINE#              1464
	C:097BH            LINE#              1465
	C:097DH            LINE#              1466
L51 CODE BANKING LINKER/LOCATOR V4.08.03          08/31/117  15:23:44  PAGE 16

	C:097EH            LINE#              1469
	C:0980H            LINE#              1470
	C:0981H            LINE#              1473
	C:0983H            LINE#              1474
	-------            ENDMOD             PIPORT5

LINK/LOCATE RUN COMPLETE,  NO ERROR FOUND.